target datalayout = "e-m:e-p270:32:32-p271:32:32-p272:64:64-i64:64-i128:128-f80:128-n8:16:32:64-S128"
target triple = "x86_64-pc-linux-gnu"

%struct.cmsysProcess_s = type { ptr, i32, [3 x i32], [3 x i32], i32, [1024 x i8], ptr, i32, double, ptr, i32, i32, i32, i32, i32, %struct.kwsysProcessTime_s, %struct.kwsysProcessTime_s, i32, i32, %struct.fd_set, i32, i32, i32, [1025 x i8], ptr, ptr, ptr, ptr, ptr, i32, i32, i32, [2 x i32], [2 x i32], [2 x i32], i32, ptr }
%struct.kwsysProcessTime_s = type { i64, i64 }
%struct.fd_set = type { [16 x i64] }

; Function Attrs: nounwind uwtable
define dso_local void @cmsysProcess_Disown(ptr noundef %0) #0 {
  %2 = alloca ptr, align 8
  store ptr %0, ptr %2, align 8, !tbaa !4
  %3 = load ptr, ptr %2, align 8, !tbaa !4
  %4 = icmp ne ptr %3, null
  br i1 %4, label %5, label %25

5:                                                ; preds = %1
  %6 = load ptr, ptr %2, align 8, !tbaa !4
  %7 = getelementptr inbounds nuw %struct.cmsysProcess_s, ptr %6, i32 0, i32 11
  %8 = load i32, ptr %7, align 4, !tbaa !22
  %9 = icmp ne i32 %8, 0
  br i1 %9, label %10, label %25

10:                                               ; preds = %5
  %11 = load ptr, ptr %2, align 8, !tbaa !4
  %12 = getelementptr inbounds nuw %struct.cmsysProcess_s, ptr %11, i32 0, i32 21
  %13 = load volatile i32, ptr %12, align 4, !tbaa !21
  %14 = icmp ne i32 %13, 3
  br i1 %14, label %25, label %15

15:                                               ; preds = %10
  %16 = load ptr, ptr %2, align 8, !tbaa !4
  %17 = getelementptr inbounds nuw %struct.cmsysProcess_s, ptr %16, i32 0, i32 17
  %18 = load i32, ptr %17, align 8, !tbaa !25
  %19 = icmp ne i32 %18, 0
  br i1 %19, label %25, label %20

20:                                               ; preds = %15
  %21 = load ptr, ptr %2, align 8, !tbaa !4
  %22 = getelementptr inbounds nuw %struct.cmsysProcess_s, ptr %21, i32 0, i32 22
  %23 = load volatile i32, ptr %22, align 8, !tbaa !26
  %24 = icmp ne i32 %23, 0
  br i1 %24, label %25, label %26

25:                                               ; preds = %20, %15, %10, %5, %1
  br label %31

26:                                               ; preds = %20
  %27 = load ptr, ptr %2, align 8, !tbaa !4
  call void @kwsysProcessClosePipes(ptr noundef %27)
  %28 = load ptr, ptr %2, align 8, !tbaa !4
  call void @kwsysProcessCleanup(ptr noundef %28, i32 noundef 0)
  %29 = load ptr, ptr %2, align 8, !tbaa !4
  %30 = getelementptr inbounds nuw %struct.cmsysProcess_s, ptr %29, i32 0, i32 21
  store volatile i32 7, ptr %30, align 4, !tbaa !21
  br label %31

31:                                               ; preds = %26, %25
  ret void
}