; Function Attrs: nounwind uwtable
define dso_local void @cmsysProcess_Disown(ptr noundef %0) local_unnamed_addr #4 {
  %.not = icmp eq ptr %0, null
  br i1 %.not, label %15, label %2

2:                                                ; preds = %1
  %3 = getelementptr inbounds nuw i8, ptr %0, i64 1100
  %4 = load i32, ptr %3, align 4, !tbaa !19
  %.not8 = icmp eq i32 %4, 0
  br i1 %.not8, label %15, label %5

5:                                                ; preds = %2
  %6 = getelementptr inbounds nuw i8, ptr %0, i64 1292
  %7 = load volatile i32, ptr %6, align 4, !tbaa !18
  %.not9 = icmp eq i32 %7, 3
  br i1 %.not9, label %8, label %15

8:                                                ; preds = %5
  %9 = getelementptr inbounds nuw i8, ptr %0, i64 1152
  %10 = load i32, ptr %9, align 8, !tbaa !20
  %.not10 = icmp eq i32 %10, 0
  br i1 %.not10, label %11, label %15

11:                                               ; preds = %8
  %12 = getelementptr inbounds nuw i8, ptr %0, i64 1296
  %13 = load volatile i32, ptr %12, align 8, !tbaa !21
  %.not11 = icmp eq i32 %13, 0
  br i1 %.not11, label %14, label %15

14:                                               ; preds = %11
  tail call fastcc void @kwsysProcessClosePipes(ptr noundef %0)
  tail call fastcc void @kwsysProcessCleanup(ptr noundef %0, i32 noundef 0)
  store volatile i32 7, ptr %6, align 4, !tbaa !18
  br label %15

15:                                               ; preds = %1, %2, %5, %8, %11, %14
  ret void
}